target datalayout = "e-m:e-p270:32:32-p271:32:32-p272:64:64-i64:64-i128:128-f80:128-n8:16:32:64-S128"
target triple = "x86_64-pc-linux-gnu"

; Function Attrs: mustprogress nounwind uwtable
define noundef zeroext i1 @_Z10IsDriveDivi(i32 noundef %0) #2 {
  %2 = alloca i32, align 4
  store i32 %0, ptr %2, align 4
  ret i1 false
}

; Function Attrs: mustprogress nounwind uwtable
define noundef zeroext i1 @_Z9IsPathDivi(i32 noundef %0) #2 {
  %2 = alloca i32, align 4
  store i32 %0, ptr %2, align 4
  %3 = load i32, ptr %2, align 4
  %4 = icmp eq i32 %3, 47
  ret i1 %4
}

; Function Attrs: mustprogress uwtable
define noundef ptr @_Z11PointToNamePKw(ptr noundef %0) #0 {
  %2 = alloca ptr, align 8
  %3 = alloca ptr, align 8
  %4 = alloca i32, align 4
  store ptr %0, ptr %3, align 8
  %5 = load ptr, ptr %3, align 8
  %6 = call i64 @wcslen(ptr noundef %5) #6
  %7 = trunc i64 %6 to i32
  %8 = sub nsw i32 %7, 1
  store i32 %8, ptr %4, align 4
  br label %9

9:                                                ; preds = %26, %1
  %10 = load i32, ptr %4, align 4
  %11 = icmp sge i32 %10, 0
  br i1 %11, label %12, label %29

12:                                               ; preds = %9
  %13 = load ptr, ptr %3, align 8
  %14 = load i32, ptr %4, align 4
  %15 = sext i32 %14 to i64
  %16 = getelementptr inbounds i32, ptr %13, i64 %15
  %17 = load i32, ptr %16, align 4
  %18 = call noundef zeroext i1 @_Z9IsPathDivi(i32 noundef %17)
  br i1 %18, label %19, label %25

19:                                               ; preds = %12
  %20 = load ptr, ptr %3, align 8
  %21 = load i32, ptr %4, align 4
  %22 = add nsw i32 %21, 1
  %23 = sext i32 %22 to i64
  %24 = getelementptr inbounds i32, ptr %20, i64 %23
  store ptr %24, ptr %2, align 8
  br label %45

25:                                               ; preds = %12
  br label %26

26:                                               ; preds = %25
  %27 = load i32, ptr %4, align 4
  %28 = add nsw i32 %27, -1
  store i32 %28, ptr %4, align 4
  br label %9, !llvm.loop !4

29:                                               ; preds = %9
  %30 = load ptr, ptr %3, align 8
  %31 = load i32, ptr %30, align 4
  %32 = icmp ne i32 %31, 0
  br i1 %32, label %33, label %41

33:                                               ; preds = %29
  %34 = load ptr, ptr %3, align 8
  %35 = getelementptr inbounds i32, ptr %34, i64 1
  %36 = load i32, ptr %35, align 4
  %37 = call noundef zeroext i1 @_Z10IsDriveDivi(i32 noundef %36)
  br i1 %37, label %38, label %41

38:                                               ; preds = %33
  %39 = load ptr, ptr %3, align 8
  %40 = getelementptr inbounds i32, ptr %39, i64 2
  br label %43

41:                                               ; preds = %33, %29
  %42 = load ptr, ptr %3, align 8
  br label %43

43:                                               ; preds = %41, %38
  %44 = phi ptr [ %40, %38 ], [ %42, %41 ]
  store ptr %44, ptr %2, align 8
  br label %45

45:                                               ; preds = %43, %19
  %46 = load ptr, ptr %2, align 8
  ret ptr %46
}

; Function Attrs: mustprogress uwtable
define noundef ptr @_Z13GetVolNumPartPKw(ptr noundef %0) #0 {
  %2 = alloca ptr, align 8
  %3 = alloca ptr, align 8
  %4 = alloca ptr, align 8
  %5 = alloca ptr, align 8
  %6 = alloca ptr, align 8
  store ptr %0, ptr %3, align 8
  %7 = load ptr, ptr %3, align 8
  %8 = call noundef ptr @_Z11PointToNamePKw(ptr noundef %7)
  store ptr %8, ptr %3, align 8
  %9 = load ptr, ptr %3, align 8
  %10 = load i32, ptr %9, align 4
  %11 = icmp eq i32 %10, 0
  br i1 %11, label %12, label %14

12:                                               ; preds = %1
  %13 = load ptr, ptr %3, align 8
  store ptr %13, ptr %2, align 8
  br label %80

14:                                               ; preds = %1
  %15 = load ptr, ptr %3, align 8
  %16 = load ptr, ptr %3, align 8
  %17 = call i64 @wcslen(ptr noundef %16) #6
  %18 = getelementptr inbounds i32, ptr %15, i64 %17
  %19 = getelementptr inbounds i32, ptr %18, i64 -1
  store ptr %19, ptr %4, align 8
  br label %20

20:                                               ; preds = %30, %14
  %21 = load ptr, ptr %4, align 8
  %22 = load i32, ptr %21, align 4
  %23 = call noundef zeroext i1 @_Z7IsDigiti(i32 noundef %22)
  br i1 %23, label %28, label %24

24:                                               ; preds = %20
  %25 = load ptr, ptr %4, align 8
  %26 = load ptr, ptr %3, align 8
  %27 = icmp ugt ptr %25, %26
  br label %28

28:                                               ; preds = %24, %20
  %29 = phi i1 [ false, %20 ], [ %27, %24 ]
  br i1 %29, label %30, label %33

30:                                               ; preds = %28
  %31 = load ptr, ptr %4, align 8
  %32 = getelementptr inbounds i32, ptr %31, i32 -1
  store ptr %32, ptr %4, align 8
  br label %20, !llvm.loop !11

33:                                               ; preds = %28
  %34 = load ptr, ptr %4, align 8
  store ptr %34, ptr %5, align 8
  br label %35

35:                                               ; preds = %45, %33
  %36 = load ptr, ptr %5, align 8
  %37 = load i32, ptr %36, align 4
  %38 = call noundef zeroext i1 @_Z7IsDigiti(i32 noundef %37)
  br i1 %38, label %39, label %43

39:                                               ; preds = %35
  %40 = load ptr, ptr %5, align 8
  %41 = load ptr, ptr %3, align 8
  %42 = icmp ugt ptr %40, %41
  br label %43

43:                                               ; preds = %39, %35
  %44 = phi i1 [ false, %35 ], [ %42, %39 ]
  br i1 %44, label %45, label %48

45:                                               ; preds = %43
  %46 = load ptr, ptr %5, align 8
  %47 = getelementptr inbounds i32, ptr %46, i32 -1
  store ptr %47, ptr %5, align 8
  br label %35, !llvm.loop !12

48:                                               ; preds = %43
  br label %49

49:                                               ; preds = %75, %48
  %50 = load ptr, ptr %5, align 8
  %51 = load ptr, ptr %3, align 8
  %52 = icmp ugt ptr %50, %51
  br i1 %52, label %53, label %57

53:                                               ; preds = %49
  %54 = load ptr, ptr %5, align 8
  %55 = load i32, ptr %54, align 4
  %56 = icmp ne i32 %55, 46
  br label %57

57:                                               ; preds = %53, %49
  %58 = phi i1 [ false, %49 ], [ %56, %53 ]
  br i1 %58, label %59, label %78

59:                                               ; preds = %57
  %60 = load ptr, ptr %5, align 8
  %61 = load i32, ptr %60, align 4
  %62 = call noundef zeroext i1 @_Z7IsDigiti(i32 noundef %61)
  br i1 %62, label %63, label %75

63:                                               ; preds = %59
  %64 = load ptr, ptr %3, align 8
  %65 = call ptr @wcschr(ptr noundef %64, i32 noundef signext 46) #6
  store ptr %65, ptr %6, align 8
  %66 = load ptr, ptr %6, align 8
  %67 = icmp ne ptr %66, null
  br i1 %67, label %68, label %74

68:                                               ; preds = %63
  %69 = load ptr, ptr %6, align 8
  %70 = load ptr, ptr %5, align 8
  %71 = icmp ult ptr %69, %70
  br i1 %71, label %72, label %74

72:                                               ; preds = %68
  %73 = load ptr, ptr %5, align 8
  store ptr %73, ptr %4, align 8
  br label %74

74:                                               ; preds = %72, %68, %63
  br label %78

75:                                               ; preds = %59
  %76 = load ptr, ptr %5, align 8
  %77 = getelementptr inbounds i32, ptr %76, i32 -1
  store ptr %77, ptr %5, align 8
  br label %49, !llvm.loop !13

78:                                               ; preds = %74, %57
  %79 = load ptr, ptr %4, align 8
  store ptr %79, ptr %2, align 8
  br label %80

80:                                               ; preds = %78, %12
  %81 = load ptr, ptr %2, align 8
  ret ptr %81
}