; Function Attrs: mustprogress uwtable
define noundef ptr @_Z13GetVolNumPartPKw(ptr noundef readonly %0) local_unnamed_addr #3 {
  %2 = tail call i64 @wcslen(ptr noundef readonly %0) #18
  %3 = and i64 %2, 4294967295
  br label %4

4:                                                ; preds = %7, %1
  %indvars.iv.i = phi i64 [ %8, %7 ], [ %3, %1 ]
  %5 = trunc nuw i64 %indvars.iv.i to i32
  %6 = icmp sgt i32 %5, 0
  br i1 %6, label %7, label %_Z11PointToNamePKw.exit

7:                                                ; preds = %4
  %8 = add nsw i64 %indvars.iv.i, -1
  %9 = getelementptr inbounds nuw i32, ptr %0, i64 %8
  %10 = load i32, ptr %9, align 4
  %11 = icmp eq i32 %10, 47
  br i1 %11, label %12, label %4, !llvm.loop !4

12:                                               ; preds = %7
  %13 = getelementptr inbounds nuw i32, ptr %0, i64 %indvars.iv.i
  br label %_Z11PointToNamePKw.exit

_Z11PointToNamePKw.exit:                          ; preds = %4, %12
  %.011.i = phi ptr [ %13, %12 ], [ %0, %4 ]
  %14 = load i32, ptr %.011.i, align 4
  %15 = icmp eq i32 %14, 0
  br i1 %15, label %.critedge, label %16

16:                                               ; preds = %_Z11PointToNamePKw.exit
  %17 = tail call i64 @wcslen(ptr noundef nonnull %.011.i) #18
  %18 = getelementptr inbounds i32, ptr %.011.i, i64 %17
  br label %19

19:                                               ; preds = %19, %16
  %.pn = phi ptr [ %18, %16 ], [ %.027, %19 ]
  %.027 = getelementptr inbounds i8, ptr %.pn, i64 -4
  %20 = load i32, ptr %.027, align 4
  %21 = tail call noundef zeroext i1 @_Z7IsDigiti(i32 noundef %20)
  %22 = icmp ule ptr %.027, %.011.i
  %.not32 = or i1 %22, %21
  br i1 %.not32, label %.preheader34, label %19, !llvm.loop !11

.preheader34:                                     ; preds = %19, %.preheader34
  %.026 = phi ptr [ %27, %.preheader34 ], [ %.027, %19 ]
  %23 = load i32, ptr %.026, align 4
  %24 = tail call noundef zeroext i1 @_Z7IsDigiti(i32 noundef %23)
  %25 = icmp ugt ptr %.026, %.011.i
  %26 = and i1 %25, %24
  %27 = getelementptr inbounds i8, ptr %.026, i64 -4
  br i1 %26, label %.preheader34, label %.preheader, !llvm.loop !12

.preheader:                                       ; preds = %.preheader34
  br i1 %25, label %.lr.ph, label %.critedge

.lr.ph:                                           ; preds = %.preheader, %34
  %.137 = phi ptr [ %35, %34 ], [ %.026, %.preheader ]
  %28 = load i32, ptr %.137, align 4
  %.not = icmp eq i32 %28, 46
  br i1 %.not, label %.critedge, label %29

29:                                               ; preds = %.lr.ph
  %30 = tail call noundef zeroext i1 @_Z7IsDigiti(i32 noundef %28)
  br i1 %30, label %31, label %34

31:                                               ; preds = %29
  %32 = tail call ptr @wcschr(ptr noundef nonnull %.011.i, i32 noundef signext 46) #18
  %.not33 = icmp ne ptr %32, null
  %33 = icmp ult ptr %32, %.137
  %or.cond = and i1 %.not33, %33
  %spec.select = select i1 %or.cond, ptr %.137, ptr %.027
  br label %.critedge

34:                                               ; preds = %29
  %35 = getelementptr inbounds i8, ptr %.137, i64 -4
  %36 = icmp ugt ptr %35, %.011.i
  br i1 %36, label %.lr.ph, label %.critedge, !llvm.loop !13

.critedge:                                        ; preds = %34, %.lr.ph, %.preheader, %31, %_Z11PointToNamePKw.exit
  %.0 = phi ptr [ %.011.i, %_Z11PointToNamePKw.exit ], [ %spec.select, %31 ], [ %.027, %.preheader ], [ %.027, %.lr.ph ], [ %.027, %34 ]
  ret ptr %.0
}